target datalayout = "e-m:e-p270:32:32-p271:32:32-p272:64:64-i64:64-i128:128-f80:128-n8:16:32:64-S128"
target triple = "x86_64-pc-linux-gnu"

@.str = private unnamed_addr constant [25 x i8] c"  Base64 encoding test: \00", align 1
@base64_test_dec = internal constant [64 x i8] c"$HnV\87bZ\BD\BF\17\D9\A2\C4\17\1A\01\94\ED\8F\1E\11\B3\D7\09\0C\B6\E9\10o\22\EE\13\CA\B3\07\05v\C9\FA1l\084\FF\8D\C2l8\00C\E9T\97\AFPK\D1A\BA\951Z\0B\97", align 16
@base64_test_enc = internal constant [89 x i8] c"JEhuVodiWr2/F9mixBcaAZTtjx4Rs9cJDLbpEG8i7hPKswcFdsn6MWwINP+Nwmw4AEPpVJevUEvRQbqVMVoLlw==\00", align 16
@.str.1 = private unnamed_addr constant [8 x i8] c"failed\0A\00", align 1
@.str.2 = private unnamed_addr constant [32 x i8] c"passed\0A  Base64 decoding test: \00", align 1
@.str.3 = private unnamed_addr constant [9 x i8] c"passed\0A\0A\00", align 1

; Function Attrs: nounwind uwtable
define hidden i32 @mbedtls_base64_self_test(i32 noundef %0) #0 {
  %2 = alloca i32, align 4
  %3 = alloca i32, align 4
  %4 = alloca i64, align 8
  %5 = alloca ptr, align 8
  %6 = alloca [128 x i8], align 16
  %7 = alloca i32, align 4
  store i32 %0, ptr %3, align 4, !tbaa !13
  call void @llvm.lifetime.start.p0(i64 8, ptr %4) #5
  call void @llvm.lifetime.start.p0(i64 8, ptr %5) #5
  call void @llvm.lifetime.start.p0(i64 128, ptr %6) #5
  %8 = load i32, ptr %3, align 4, !tbaa !13
  %9 = icmp ne i32 %8, 0
  br i1 %9, label %10, label %12

10:                                               ; preds = %1
  %11 = call i32 (ptr, ...) @printf(ptr noundef @.str)
  br label %12

12:                                               ; preds = %10, %1
  store ptr @base64_test_dec, ptr %5, align 8, !tbaa !3
  %13 = getelementptr inbounds [128 x i8], ptr %6, i64 0, i64 0
  %14 = load ptr, ptr %5, align 8, !tbaa !3
  %15 = call i32 @mbedtls_base64_encode(ptr noundef %13, i64 noundef 128, ptr noundef %4, ptr noundef %14, i64 noundef 64)
  %16 = icmp ne i32 %15, 0
  br i1 %16, label %21, label %17

17:                                               ; preds = %12
  %18 = getelementptr inbounds [128 x i8], ptr %6, i64 0, i64 0
  %19 = call i32 @memcmp(ptr noundef @base64_test_enc, ptr noundef %18, i64 noundef 88) #6
  %20 = icmp ne i32 %19, 0
  br i1 %20, label %21, label %27

21:                                               ; preds = %17, %12
  %22 = load i32, ptr %3, align 4, !tbaa !13
  %23 = icmp ne i32 %22, 0
  br i1 %23, label %24, label %26

24:                                               ; preds = %21
  %25 = call i32 (ptr, ...) @printf(ptr noundef @.str.1)
  br label %26

26:                                               ; preds = %24, %21
  store i32 1, ptr %2, align 4
  store i32 1, ptr %7, align 4
  br label %53

27:                                               ; preds = %17
  %28 = load i32, ptr %3, align 4, !tbaa !13
  %29 = icmp ne i32 %28, 0
  br i1 %29, label %30, label %32

30:                                               ; preds = %27
  %31 = call i32 (ptr, ...) @printf(ptr noundef @.str.2)
  br label %32

32:                                               ; preds = %30, %27
  store ptr @base64_test_enc, ptr %5, align 8, !tbaa !3
  %33 = getelementptr inbounds [128 x i8], ptr %6, i64 0, i64 0
  %34 = load ptr, ptr %5, align 8, !tbaa !3
  %35 = call i32 @mbedtls_base64_decode(ptr noundef %33, i64 noundef 128, ptr noundef %4, ptr noundef %34, i64 noundef 88)
  %36 = icmp ne i32 %35, 0
  br i1 %36, label %41, label %37

37:                                               ; preds = %32
  %38 = getelementptr inbounds [128 x i8], ptr %6, i64 0, i64 0
  %39 = call i32 @memcmp(ptr noundef @base64_test_dec, ptr noundef %38, i64 noundef 64) #6
  %40 = icmp ne i32 %39, 0
  br i1 %40, label %41, label %47

41:                                               ; preds = %37, %32
  %42 = load i32, ptr %3, align 4, !tbaa !13
  %43 = icmp ne i32 %42, 0
  br i1 %43, label %44, label %46

44:                                               ; preds = %41
  %45 = call i32 (ptr, ...) @printf(ptr noundef @.str.1)
  br label %46

46:                                               ; preds = %44, %41
  store i32 1, ptr %2, align 4
  store i32 1, ptr %7, align 4
  br label %53

47:                                               ; preds = %37
  %48 = load i32, ptr %3, align 4, !tbaa !13
  %49 = icmp ne i32 %48, 0
  br i1 %49, label %50, label %52

50:                                               ; preds = %47
  %51 = call i32 (ptr, ...) @printf(ptr noundef @.str.3)
  br label %52

52:                                               ; preds = %50, %47
  store i32 0, ptr %2, align 4
  store i32 1, ptr %7, align 4
  br label %53

53:                                               ; preds = %52, %46, %26
  call void @llvm.lifetime.end.p0(i64 128, ptr %6) #5
  call void @llvm.lifetime.end.p0(i64 8, ptr %5) #5
  call void @llvm.lifetime.end.p0(i64 8, ptr %4) #5
  %54 = load i32, ptr %2, align 4
  ret i32 %54
}