; Function Attrs: nounwind uwtable
define hidden range(i32 0, 2) i32 @mbedtls_base64_self_test(i32 noundef %0) local_unnamed_addr #0 {
  %2 = alloca i64, align 8
  %3 = alloca [128 x i8], align 16
  call void @llvm.lifetime.start.p0(i64 8, ptr nonnull %2) #6
  call void @llvm.lifetime.start.p0(i64 128, ptr nonnull %3) #6
  %.not = icmp eq i32 %0, 0
  br i1 %.not, label %6, label %4

4:                                                ; preds = %1
  %5 = tail call i32 (ptr, ...) @printf(ptr noundef nonnull dereferenceable(1) @.str)
  br label %6

6:                                                ; preds = %4, %1
  %7 = call i32 @mbedtls_base64_encode(ptr noundef nonnull %3, i64 noundef 128, ptr noundef nonnull %2, ptr noundef nonnull @base64_test_dec, i64 noundef 64)
  %.not7 = icmp eq i32 %7, 0
  br i1 %.not7, label %8, label %9

8:                                                ; preds = %6
  %bcmp = call i32 @bcmp(ptr noundef nonnull dereferenceable(88) @base64_test_enc, ptr noundef nonnull dereferenceable(88) %3, i64 88)
  %.not8 = icmp eq i32 %bcmp, 0
  br i1 %.not8, label %10, label %9

9:                                                ; preds = %8, %6
  br i1 %.not, label %18, label %.sink.split

10:                                               ; preds = %8
  br i1 %.not, label %13, label %11

11:                                               ; preds = %10
  %12 = call i32 (ptr, ...) @printf(ptr noundef nonnull dereferenceable(1) @.str.2)
  br label %13

13:                                               ; preds = %11, %10
  %14 = call i32 @mbedtls_base64_decode(ptr noundef nonnull %3, i64 noundef 128, ptr noundef nonnull %2, ptr noundef nonnull @base64_test_enc, i64 noundef 88)
  %.not9 = icmp eq i32 %14, 0
  br i1 %.not9, label %15, label %16

15:                                               ; preds = %13
  %bcmp10 = call i32 @bcmp(ptr noundef nonnull dereferenceable(64) @base64_test_dec, ptr noundef nonnull dereferenceable(64) %3, i64 64)
  %.not11 = icmp eq i32 %bcmp10, 0
  br i1 %.not11, label %17, label %16

16:                                               ; preds = %15, %13
  br i1 %.not, label %18, label %.sink.split

17:                                               ; preds = %15
  br i1 %.not, label %18, label %.sink.split

.sink.split:                                      ; preds = %17, %16, %9
  %str.sink = phi ptr [ @str.2, %9 ], [ @str.2, %16 ], [ @str, %17 ]
  %.0.ph = phi i32 [ 1, %9 ], [ 1, %16 ], [ 0, %17 ]
  %puts = call i32 @puts(ptr nonnull dereferenceable(1) %str.sink)
  br label %18

18:                                               ; preds = %.sink.split, %17, %16, %9
  %.0 = phi i32 [ 1, %9 ], [ 1, %16 ], [ 0, %17 ], [ %.0.ph, %.sink.split ]
  call void @llvm.lifetime.end.p0(i64 128, ptr nonnull %3) #6
  call void @llvm.lifetime.end.p0(i64 8, ptr nonnull %2) #6
  ret i32 %.0
}